target datalayout = "e-m:e-p270:32:32-p271:32:32-p272:64:64-i64:64-i128:128-f80:128-n8:16:32:64-S128"
target triple = "x86_64-pc-linux-gnu"

%struct.AVRational = type { i32, i32 }
%struct.ID3v2ExtraMeta = type { ptr, ptr, %union.anon }
%union.anon = type { %struct.ID3v2ExtraMetaGEOB }
%struct.ID3v2ExtraMetaGEOB = type { i32, ptr, ptr, ptr, ptr }
%struct.ID3v2ExtraMetaCHAP = type { ptr, i32, i32, ptr }
%struct.AVChapter = type { i64, %struct.AVRational, i64, i64, ptr }

@__const.ff_id3v2_parse_chapters.time_base = private unnamed_addr constant %struct.AVRational { i32 1, i32 1000 }, align 4
@.str.68 = private unnamed_addr constant [5 x i8] c"CHAP\00", align 1

; Function Attrs: nounwind uwtable
define i32 @ff_id3v2_parse_chapters(ptr noundef %0, ptr noundef %1) #0 {
  %3 = alloca i32, align 4
  %4 = alloca ptr, align 8
  %5 = alloca ptr, align 8
  %6 = alloca %struct.AVRational, align 4
  %7 = alloca i32, align 4
  %8 = alloca i32, align 4
  %9 = alloca i32, align 4
  %10 = alloca ptr, align 8
  %11 = alloca ptr, align 8
  store ptr %0, ptr %4, align 8, !tbaa !19
  store ptr %1, ptr %5, align 8, !tbaa !23
  call void @llvm.lifetime.start.p0(i64 8, ptr %6) #10
  call void @llvm.memcpy.p0.p0.i64(ptr align 4 %6, ptr align 4 @__const.ff_id3v2_parse_chapters.time_base, i64 8, i1 false)
  call void @llvm.lifetime.start.p0(i64 4, ptr %7) #10
  call void @llvm.lifetime.start.p0(i64 4, ptr %8) #10
  store i32 0, ptr %8, align 4, !tbaa !10
  br label %12

12:                                               ; preds = %60, %2
  %13 = load ptr, ptr %5, align 8, !tbaa !23
  %14 = icmp ne ptr %13, null
  br i1 %14, label %16, label %15

15:                                               ; preds = %12
  store i32 2, ptr %9, align 4
  br label %64

16:                                               ; preds = %12
  call void @llvm.lifetime.start.p0(i64 8, ptr %10) #10
  call void @llvm.lifetime.start.p0(i64 8, ptr %11) #10
  %17 = load ptr, ptr %5, align 8, !tbaa !23
  %18 = getelementptr inbounds nuw %struct.ID3v2ExtraMeta, ptr %17, i32 0, i32 0
  %19 = load ptr, ptr %18, align 8, !tbaa !41
  %20 = call i32 @strcmp(ptr noundef %19, ptr noundef @.str.68) #11
  %21 = icmp ne i32 %20, 0
  br i1 %21, label %22, label %23

22:                                               ; preds = %16
  store i32 4, ptr %9, align 4
  br label %57

23:                                               ; preds = %16
  %24 = load ptr, ptr %5, align 8, !tbaa !23
  %25 = getelementptr inbounds nuw %struct.ID3v2ExtraMeta, ptr %24, i32 0, i32 2
  store ptr %25, ptr %10, align 8, !tbaa !74
  %26 = load ptr, ptr %4, align 8, !tbaa !19
  %27 = load i32, ptr %8, align 4, !tbaa !10
  %28 = add i32 %27, 1
  store i32 %28, ptr %8, align 4, !tbaa !10
  %29 = zext i32 %27 to i64
  %30 = load ptr, ptr %10, align 8, !tbaa !74
  %31 = getelementptr inbounds nuw %struct.ID3v2ExtraMetaCHAP, ptr %30, i32 0, i32 1
  %32 = load i32, ptr %31, align 8, !tbaa !76
  %33 = zext i32 %32 to i64
  %34 = load ptr, ptr %10, align 8, !tbaa !74
  %35 = getelementptr inbounds nuw %struct.ID3v2ExtraMetaCHAP, ptr %34, i32 0, i32 2
  %36 = load i32, ptr %35, align 4, !tbaa !78
  %37 = zext i32 %36 to i64
  %38 = load ptr, ptr %10, align 8, !tbaa !74
  %39 = getelementptr inbounds nuw %struct.ID3v2ExtraMetaCHAP, ptr %38, i32 0, i32 0
  %40 = load ptr, ptr %39, align 8, !tbaa !79
  %41 = load i64, ptr %6, align 4
  %42 = call ptr @avpriv_new_chapter(ptr noundef %26, i64 noundef %29, i64 %41, i64 noundef %33, i64 noundef %37, ptr noundef %40)
  store ptr %42, ptr %11, align 8, !tbaa !80
  %43 = load ptr, ptr %11, align 8, !tbaa !80
  %44 = icmp ne ptr %43, null
  br i1 %44, label %46, label %45

45:                                               ; preds = %23
  store i32 4, ptr %9, align 4
  br label %57

46:                                               ; preds = %23
  %47 = load ptr, ptr %11, align 8, !tbaa !80
  %48 = getelementptr inbounds nuw %struct.AVChapter, ptr %47, i32 0, i32 4
  %49 = load ptr, ptr %10, align 8, !tbaa !74
  %50 = getelementptr inbounds nuw %struct.ID3v2ExtraMetaCHAP, ptr %49, i32 0, i32 3
  %51 = load ptr, ptr %50, align 8, !tbaa !82
  %52 = call i32 @av_dict_copy(ptr noundef %48, ptr noundef %51, i32 noundef 0)
  store i32 %52, ptr %7, align 4, !tbaa !10
  %53 = icmp slt i32 %52, 0
  br i1 %53, label %54, label %56

54:                                               ; preds = %46
  %55 = load i32, ptr %7, align 4, !tbaa !10
  store i32 %55, ptr %3, align 4
  store i32 1, ptr %9, align 4
  br label %57

56:                                               ; preds = %46
  store i32 0, ptr %9, align 4
  br label %57

57:                                               ; preds = %56, %54, %45, %22
  call void @llvm.lifetime.end.p0(i64 8, ptr %11) #10
  call void @llvm.lifetime.end.p0(i64 8, ptr %10) #10
  %58 = load i32, ptr %9, align 4
  switch i32 %58, label %64 [
    i32 0, label %59
    i32 4, label %60
  ]

59:                                               ; preds = %57
  br label %60

60:                                               ; preds = %59, %57
  %61 = load ptr, ptr %5, align 8, !tbaa !23
  %62 = getelementptr inbounds nuw %struct.ID3v2ExtraMeta, ptr %61, i32 0, i32 1
  %63 = load ptr, ptr %62, align 8, !tbaa !47
  store ptr %63, ptr %5, align 8, !tbaa !23
  br label %12, !llvm.loop !83

64:                                               ; preds = %57, %15
  call void @llvm.lifetime.end.p0(i64 4, ptr %8) #10
  %65 = load i32, ptr %9, align 4
  switch i32 %65, label %67 [
    i32 2, label %66
  ]

66:                                               ; preds = %64
  store i32 0, ptr %3, align 4
  store i32 1, ptr %9, align 4
  br label %67

67:                                               ; preds = %66, %64
  call void @llvm.lifetime.end.p0(i64 4, ptr %7) #10
  call void @llvm.lifetime.end.p0(i64 8, ptr %6) #10
  %68 = load i32, ptr %3, align 4
  ret i32 %68
}