; Function Attrs: nounwind uwtable
define range(i32 -2147483648, 1) i32 @ff_id3v2_parse_chapters(ptr noundef %0, ptr noundef readonly captures(address_is_null) %1) local_unnamed_addr #2 {
  %.not29 = icmp eq ptr %1, null
  br i1 %.not29, label %._crit_edge, label %.lr.ph

.lr.ph:                                           ; preds = %2, %23
  %.01531 = phi ptr [ %25, %23 ], [ %1, %2 ]
  %.01830 = phi i32 [ %.119.ph, %23 ], [ 0, %2 ]
  %3 = load ptr, ptr %.01531, align 8, !tbaa !47
  %4 = tail call i32 @strcmp(ptr noundef nonnull dereferenceable(1) %3, ptr noundef nonnull dereferenceable(5) @.str.68) #10
  %.not22 = icmp eq i32 %4, 0
  br i1 %.not22, label %5, label %23

5:                                                ; preds = %.lr.ph
  %6 = getelementptr inbounds nuw i8, ptr %.01531, i64 16
  %7 = add i32 %.01830, 1
  %8 = zext i32 %.01830 to i64
  %9 = getelementptr inbounds nuw i8, ptr %.01531, i64 24
  %10 = load i32, ptr %9, align 8, !tbaa !72
  %11 = zext i32 %10 to i64
  %12 = getelementptr inbounds nuw i8, ptr %.01531, i64 28
  %13 = load i32, ptr %12, align 4, !tbaa !74
  %14 = zext i32 %13 to i64
  %15 = load ptr, ptr %6, align 8, !tbaa !75
  %16 = tail call ptr @avpriv_new_chapter(ptr noundef %0, i64 noundef %8, i64 4294967296001, i64 noundef %11, i64 noundef %14, ptr noundef %15) #9
  %.not23 = icmp eq ptr %16, null
  br i1 %.not23, label %23, label %17

17:                                               ; preds = %5
  %18 = getelementptr inbounds nuw i8, ptr %16, i64 32
  %19 = getelementptr inbounds nuw i8, ptr %.01531, i64 32
  %20 = load ptr, ptr %19, align 8, !tbaa !76
  %21 = tail call i32 @av_dict_copy(ptr noundef nonnull %18, ptr noundef %20, i32 noundef 0) #9
  %22 = icmp slt i32 %21, 0
  br i1 %22, label %._crit_edge, label %23

23:                                               ; preds = %.lr.ph, %5, %17
  %.119.ph = phi i32 [ %7, %17 ], [ %7, %5 ], [ %.01830, %.lr.ph ]
  %24 = getelementptr inbounds nuw i8, ptr %.01531, i64 8
  %25 = load ptr, ptr %24, align 8, !tbaa !50
  %.not = icmp eq ptr %25, null
  br i1 %.not, label %._crit_edge, label %.lr.ph, !llvm.loop !77

._crit_edge:                                      ; preds = %23, %17, %2
  %spec.select = phi i32 [ 0, %2 ], [ %21, %17 ], [ 0, %23 ]
  ret i32 %spec.select
}